target datalayout = "e-m:e-p270:32:32-p271:32:32-p272:64:64-i64:64-i128:128-f80:128-n8:16:32:64-S128"
target triple = "x86_64-pc-linux-gnu"

%struct.expert_field = type { i32, i32 }
%struct._packet_info = type { ptr, ptr, i32, i32, %struct.nstime_t, %struct.nstime_t, %struct.nstime_t, i8, ptr, ptr, ptr, ptr, %struct._address, %struct._address, %struct._address, %struct._address, %struct._address, %struct._address, i32, ptr, i8, [3 x i8], %struct.anon, i32, i32, i32, i32, ptr, i8, ptr, ptr, i16, i16, i32, i32, i16, i32, i32, ptr, ptr, ptr, i8, i8, i16, i16, i16, i32, i16, i16, ptr, ptr, ptr, ptr, ptr, i32, i32 }
%struct.nstime_t = type { i64, i32 }
%struct._address = type { i32, i32, ptr, ptr }
%struct.anon = type { i8, [3 x i8] }

@hf_reserved = internal global i32 0, align 4
@hf_checksum = internal global i32 0, align 4
@hf_checksum_status = internal global i32 0, align 4
@hf_max_resp = internal global i32 0, align 4
@hf_qqic = internal global i32 0, align 4
@hf_num_src = internal global i32 0, align 4
@hf_saddr = internal global i32 0, align 4
@hf_maddr = internal global i32 0, align 4
@hf_max_resp_exp = internal global i32 0, align 4
@hf_max_resp_mant = internal global i32 0, align 4
@ett_max_resp = internal global i32 0, align 4
@ei_checksum = internal global %struct.expert_field zeroinitializer, align 4
@.str.196 = private unnamed_addr constant [18 x i8] c"%.1f sec (0x%02x)\00", align 1
@.str.197 = private unnamed_addr constant [10 x i8] c", general\00", align 1
@.str.199 = private unnamed_addr constant [24 x i8] c", specific for group %s\00", align 1
@.str.201 = private unnamed_addr constant [13 x i8] c", source%s {\00", align 1
@.str.202 = private unnamed_addr constant [2 x i8] c"s\00", align 1
@.str.203 = private unnamed_addr constant [1 x i8] zeroinitializer, align 1
@.str.204 = private unnamed_addr constant [5 x i8] c"%s%s\00", align 1
@.str.205 = private unnamed_addr constant [3 x i8] c", \00", align 1
@.str.206 = private unnamed_addr constant [2 x i8] c"}\00", align 1
@dissect_v3_sqrv_bits.bits = internal constant [3 x ptr] [ptr @hf_suppress, ptr @hf_qrv, ptr null], align 16

; Function Attrs: null_pointer_is_valid sspstrong uwtable
define internal i32 @dissect_v3_sqrv_bits(ptr noundef %0, ptr noundef %1, i32 noundef %2) #0 {
  %4 = alloca ptr, align 8
  %5 = alloca ptr, align 8
  %6 = alloca i32, align 4
  store ptr %0, ptr %4, align 8
  store ptr %1, ptr %5, align 8
  store i32 %2, ptr %6, align 4
  %7 = load ptr, ptr %5, align 8
  %8 = load ptr, ptr %4, align 8
  %9 = load i32, ptr %6, align 4
  call void @proto_tree_add_bitmask_list(ptr noundef %7, ptr noundef %8, i32 noundef %9, i32 noundef 1, ptr noundef @dissect_v3_sqrv_bits.bits, i32 noundef 0)
  %10 = load i32, ptr %6, align 4
  %11 = add i32 %10, 1
  store i32 %11, ptr %6, align 4
  %12 = load i32, ptr %6, align 4
  ret i32 %12
}

; Function Attrs: null_pointer_is_valid sspstrong uwtable
define internal i32 @dissect_v3_max_resp(ptr noundef %0, ptr noundef %1, i32 noundef %2) #0 {
  %4 = alloca ptr, align 8
  %5 = alloca ptr, align 8
  %6 = alloca i32, align 4
  %7 = alloca ptr, align 8
  %8 = alloca ptr, align 8
  %9 = alloca i8, align 1
  %10 = alloca i32, align 4
  store ptr %0, ptr %4, align 8
  store ptr %1, ptr %5, align 8
  store i32 %2, ptr %6, align 4
  call void @llvm.lifetime.start.p0(i64 8, ptr %7) #4
  call void @llvm.lifetime.start.p0(i64 8, ptr %8) #4
  call void @llvm.lifetime.start.p0(i64 1, ptr %9) #4
  call void @llvm.lifetime.start.p0(i64 4, ptr %10) #4
  %11 = load ptr, ptr %4, align 8
  %12 = load i32, ptr %6, align 4
  %13 = call zeroext i8 @tvb_get_uint8(ptr noundef %11, i32 noundef %12)
  store i8 %13, ptr %9, align 1
  %14 = load i8, ptr %9, align 1
  %15 = zext i8 %14 to i32
  %16 = and i32 %15, 128
  %17 = icmp ne i32 %16, 0
  br i1 %17, label %18, label %30

18:                                               ; preds = %3
  %19 = load i8, ptr %9, align 1
  %20 = zext i8 %19 to i32
  %21 = and i32 %20, 15
  %22 = or i32 %21, 16
  store i32 %22, ptr %10, align 4
  %23 = load i32, ptr %10, align 4
  %24 = load i8, ptr %9, align 1
  %25 = zext i8 %24 to i32
  %26 = and i32 %25, 112
  %27 = ashr i32 %26, 4
  %28 = add i32 %27, 3
  %29 = shl i32 %23, %28
  store i32 %29, ptr %10, align 4
  br label %33

30:                                               ; preds = %3
  %31 = load i8, ptr %9, align 1
  %32 = zext i8 %31 to i32
  store i32 %32, ptr %10, align 4
  br label %33

33:                                               ; preds = %30, %18
  %34 = load ptr, ptr %5, align 8
  %35 = load i32, ptr @hf_max_resp, align 4
  %36 = load ptr, ptr %4, align 8
  %37 = load i32, ptr %6, align 4
  %38 = load i32, ptr %10, align 4
  %39 = load i32, ptr %10, align 4
  %40 = uitofp i32 %39 to double
  %41 = fmul double %40, 1.000000e-01
  %42 = load i8, ptr %9, align 1
  %43 = zext i8 %42 to i32
  %44 = call ptr (ptr, i32, ptr, i32, i32, i32, ptr, ...) @proto_tree_add_uint_format_value(ptr noundef %34, i32 noundef %35, ptr noundef %36, i32 noundef %37, i32 noundef 1, i32 noundef %38, ptr noundef @.str.196, double noundef %41, i32 noundef %43)
  store ptr %44, ptr %8, align 8
  %45 = load i8, ptr %9, align 1
  %46 = zext i8 %45 to i32
  %47 = and i32 %46, 128
  %48 = icmp ne i32 %47, 0
  br i1 %48, label %49, label %67

49:                                               ; preds = %33
  %50 = load ptr, ptr %8, align 8
  %51 = load i32, ptr @ett_max_resp, align 4
  %52 = call ptr @proto_item_add_subtree(ptr noundef %50, i32 noundef %51)
  store ptr %52, ptr %7, align 8
  %53 = load ptr, ptr %7, align 8
  %54 = load i32, ptr @hf_max_resp_exp, align 4
  %55 = load ptr, ptr %4, align 8
  %56 = load i32, ptr %6, align 4
  %57 = load i8, ptr %9, align 1
  %58 = zext i8 %57 to i32
  %59 = call ptr @proto_tree_add_uint(ptr noundef %53, i32 noundef %54, ptr noundef %55, i32 noundef %56, i32 noundef 1, i32 noundef %58)
  %60 = load ptr, ptr %7, align 8
  %61 = load i32, ptr @hf_max_resp_mant, align 4
  %62 = load ptr, ptr %4, align 8
  %63 = load i32, ptr %6, align 4
  %64 = load i8, ptr %9, align 1
  %65 = zext i8 %64 to i32
  %66 = call ptr @proto_tree_add_uint(ptr noundef %60, i32 noundef %61, ptr noundef %62, i32 noundef %63, i32 noundef 1, i32 noundef %65)
  br label %67

67:                                               ; preds = %49, %33
  %68 = load i32, ptr %6, align 4
  %69 = add i32 %68, 1
  store i32 %69, ptr %6, align 4
  %70 = load i32, ptr %6, align 4
  call void @llvm.lifetime.end.p0(i64 4, ptr %10) #4
  call void @llvm.lifetime.end.p0(i64 1, ptr %9) #4
  call void @llvm.lifetime.end.p0(i64 8, ptr %8) #4
  call void @llvm.lifetime.end.p0(i64 8, ptr %7) #4
  ret i32 %70
}

; Function Attrs: null_pointer_is_valid sspstrong uwtable
define internal i32 @dissect_igmp_v1(ptr noundef %0, ptr noundef %1, ptr noundef %2, ptr noundef %3) #0 {
  %5 = alloca ptr, align 8
  %6 = alloca ptr, align 8
  %7 = alloca ptr, align 8
  %8 = alloca ptr, align 8
  %9 = alloca ptr, align 8
  %10 = alloca i32, align 4
  %11 = alloca i8, align 1
  store ptr %0, ptr %5, align 8
  store ptr %1, ptr %6, align 8
  store ptr %2, ptr %7, align 8
  store ptr %3, ptr %8, align 8
  call void @llvm.lifetime.start.p0(i64 8, ptr %9) #4
  call void @llvm.lifetime.start.p0(i64 4, ptr %10) #4
  call void @llvm.lifetime.start.p0(i64 1, ptr %11) #4
  %12 = load ptr, ptr %5, align 8
  %13 = load ptr, ptr %6, align 8
  %14 = load ptr, ptr %7, align 8
  %15 = call ptr @dissect_igmp_common(ptr noundef %12, ptr noundef %13, ptr noundef %14, ptr noundef %10, ptr noundef %11, i32 noundef 1)
  store ptr %15, ptr %9, align 8
  %16 = load ptr, ptr %9, align 8
  %17 = load i32, ptr @hf_reserved, align 4
  %18 = load ptr, ptr %5, align 8
  %19 = load i32, ptr %10, align 4
  %20 = call ptr @proto_tree_add_item(ptr noundef %16, i32 noundef %17, ptr noundef %18, i32 noundef %19, i32 noundef 1, i32 noundef 0)
  %21 = load i32, ptr %10, align 4
  %22 = add i32 %21, 1
  store i32 %22, ptr %10, align 4
  %23 = load ptr, ptr %9, align 8
  %24 = load ptr, ptr %5, align 8
  %25 = load i32, ptr @hf_checksum, align 4
  %26 = load i32, ptr @hf_checksum_status, align 4
  %27 = load ptr, ptr %6, align 8
  call void @igmp_checksum(ptr noundef %23, ptr noundef %24, i32 noundef %25, i32 noundef %26, ptr noundef @ei_checksum, ptr noundef %27, i32 noundef 8)
  %28 = load i32, ptr %10, align 4
  %29 = add i32 %28, 2
  store i32 %29, ptr %10, align 4
  %30 = load ptr, ptr %9, align 8
  %31 = load i32, ptr @hf_maddr, align 4
  %32 = load ptr, ptr %5, align 8
  %33 = load i32, ptr %10, align 4
  %34 = call ptr @proto_tree_add_item(ptr noundef %30, i32 noundef %31, ptr noundef %32, i32 noundef %33, i32 noundef 4, i32 noundef 0)
  %35 = load i32, ptr %10, align 4
  %36 = add i32 %35, 4
  store i32 %36, ptr %10, align 4
  %37 = load i32, ptr %10, align 4
  call void @llvm.lifetime.end.p0(i64 1, ptr %11) #4
  call void @llvm.lifetime.end.p0(i64 4, ptr %10) #4
  call void @llvm.lifetime.end.p0(i64 8, ptr %9) #4
  ret i32 %37
}

; Function Attrs: null_pointer_is_valid sspstrong uwtable
define internal i32 @dissect_igmp_v3_query(ptr noundef %0, ptr noundef %1, ptr noundef %2, ptr noundef %3) #0 {
  %5 = alloca ptr, align 8
  %6 = alloca ptr, align 8
  %7 = alloca ptr, align 8
  %8 = alloca ptr, align 8
  %9 = alloca ptr, align 8
  %10 = alloca i16, align 2
  %11 = alloca i32, align 4
  %12 = alloca i8, align 1
  store ptr %0, ptr %5, align 8
  store ptr %1, ptr %6, align 8
  store ptr %2, ptr %7, align 8
  store ptr %3, ptr %8, align 8
  call void @llvm.lifetime.start.p0(i64 8, ptr %9) #4
  call void @llvm.lifetime.start.p0(i64 2, ptr %10) #4
  call void @llvm.lifetime.start.p0(i64 4, ptr %11) #4
  call void @llvm.lifetime.start.p0(i64 1, ptr %12) #4
  %13 = load ptr, ptr %5, align 8
  %14 = load ptr, ptr %6, align 8
  %15 = load ptr, ptr %7, align 8
  %16 = call ptr @dissect_igmp_common(ptr noundef %13, ptr noundef %14, ptr noundef %15, ptr noundef %11, ptr noundef %12, i32 noundef 3)
  store ptr %16, ptr %9, align 8
  %17 = load ptr, ptr %5, align 8
  %18 = load i32, ptr %11, align 4
  %19 = add i32 %18, 9
  %20 = call zeroext i16 @tvb_get_ntohs(ptr noundef %17, i32 noundef %19)
  store i16 %20, ptr %10, align 2
  %21 = load ptr, ptr %5, align 8
  %22 = load ptr, ptr %9, align 8
  %23 = load i32, ptr %11, align 4
  %24 = call i32 @dissect_v3_max_resp(ptr noundef %21, ptr noundef %22, i32 noundef %23)
  store i32 %24, ptr %11, align 4
  %25 = load ptr, ptr %9, align 8
  %26 = load ptr, ptr %5, align 8
  %27 = load i32, ptr @hf_checksum, align 4
  %28 = load i32, ptr @hf_checksum_status, align 4
  %29 = load ptr, ptr %6, align 8
  call void @igmp_checksum(ptr noundef %25, ptr noundef %26, i32 noundef %27, i32 noundef %28, ptr noundef @ei_checksum, ptr noundef %29, i32 noundef 0)
  %30 = load i32, ptr %11, align 4
  %31 = add i32 %30, 2
  store i32 %31, ptr %11, align 4
  %32 = load ptr, ptr %9, align 8
  %33 = load i32, ptr @hf_maddr, align 4
  %34 = load ptr, ptr %5, align 8
  %35 = load i32, ptr %11, align 4
  %36 = call ptr @proto_tree_add_item(ptr noundef %32, i32 noundef %33, ptr noundef %34, i32 noundef %35, i32 noundef 4, i32 noundef 0)
  %37 = load ptr, ptr %5, align 8
  %38 = load i32, ptr %11, align 4
  %39 = call i32 @tvb_get_ipv4(ptr noundef %37, i32 noundef %38)
  %40 = icmp ne i32 %39, 0
  br i1 %40, label %45, label %41

41:                                               ; preds = %4
  %42 = load ptr, ptr %6, align 8
  %43 = getelementptr inbounds nuw %struct._packet_info, ptr %42, i32 0, i32 1
  %44 = load ptr, ptr %43, align 8
  call void @col_append_str(ptr noundef %44, i32 noundef 25, ptr noundef @.str.197)
  br label %55

45:                                               ; preds = %4
  %46 = load ptr, ptr %6, align 8
  %47 = getelementptr inbounds nuw %struct._packet_info, ptr %46, i32 0, i32 1
  %48 = load ptr, ptr %47, align 8
  %49 = load ptr, ptr %6, align 8
  %50 = getelementptr inbounds nuw %struct._packet_info, ptr %49, i32 0, i32 51
  %51 = load ptr, ptr %50, align 8
  %52 = load ptr, ptr %5, align 8
  %53 = load i32, ptr %11, align 4
  %54 = call ptr @tvb_address_to_str(ptr noundef %51, ptr noundef %52, i32 noundef 2, i32 noundef %53)
  call void (ptr, i32, ptr, ...) @col_append_fstr(ptr noundef %48, i32 noundef 25, ptr noundef @.str.199, ptr noundef %54)
  br label %55

55:                                               ; preds = %45, %41
  %56 = load i32, ptr %11, align 4
  %57 = add i32 %56, 4
  store i32 %57, ptr %11, align 4
  %58 = load ptr, ptr %5, align 8
  %59 = load ptr, ptr %9, align 8
  %60 = load i32, ptr %11, align 4
  %61 = call i32 @dissect_v3_sqrv_bits(ptr noundef %58, ptr noundef %59, i32 noundef %60)
  store i32 %61, ptr %11, align 4
  %62 = load ptr, ptr %9, align 8
  %63 = load i32, ptr @hf_qqic, align 4
  %64 = load ptr, ptr %5, align 8
  %65 = load i32, ptr %11, align 4
  %66 = call ptr @proto_tree_add_item(ptr noundef %62, i32 noundef %63, ptr noundef %64, i32 noundef %65, i32 noundef 1, i32 noundef 0)
  %67 = load i32, ptr %11, align 4
  %68 = add i32 %67, 1
  store i32 %68, ptr %11, align 4
  %69 = load ptr, ptr %9, align 8
  %70 = load i32, ptr @hf_num_src, align 4
  %71 = load ptr, ptr %5, align 8
  %72 = load i32, ptr %11, align 4
  %73 = load i16, ptr %10, align 2
  %74 = zext i16 %73 to i32
  %75 = call ptr @proto_tree_add_uint(ptr noundef %69, i32 noundef %70, ptr noundef %71, i32 noundef %72, i32 noundef 2, i32 noundef %74)
  %76 = load i16, ptr %10, align 2
  %77 = icmp ne i16 %76, 0
  br i1 %77, label %78, label %86

78:                                               ; preds = %55
  %79 = load ptr, ptr %6, align 8
  %80 = getelementptr inbounds nuw %struct._packet_info, ptr %79, i32 0, i32 1
  %81 = load ptr, ptr %80, align 8
  %82 = load i16, ptr %10, align 2
  %83 = zext i16 %82 to i32
  %84 = icmp sgt i32 %83, 1
  %85 = select i1 %84, ptr @.str.202, ptr @.str.203
  call void (ptr, i32, ptr, ...) @col_append_fstr(ptr noundef %81, i32 noundef 25, ptr noundef @.str.201, ptr noundef %85)
  br label %86

86:                                               ; preds = %78, %55
  %87 = load i32, ptr %11, align 4
  %88 = add i32 %87, 2
  store i32 %88, ptr %11, align 4
  br label %89

89:                                               ; preds = %93, %86
  %90 = load i16, ptr %10, align 2
  %91 = add i16 %90, -1
  store i16 %91, ptr %10, align 2
  %92 = icmp ne i16 %90, 0
  br i1 %92, label %93, label %114

93:                                               ; preds = %89
  %94 = load ptr, ptr %6, align 8
  %95 = getelementptr inbounds nuw %struct._packet_info, ptr %94, i32 0, i32 1
  %96 = load ptr, ptr %95, align 8
  %97 = load ptr, ptr %6, align 8
  %98 = getelementptr inbounds nuw %struct._packet_info, ptr %97, i32 0, i32 51
  %99 = load ptr, ptr %98, align 8
  %100 = load ptr, ptr %5, align 8
  %101 = load i32, ptr %11, align 4
  %102 = call ptr @tvb_address_to_str(ptr noundef %99, ptr noundef %100, i32 noundef 2, i32 noundef %101)
  %103 = load i16, ptr %10, align 2
  %104 = zext i16 %103 to i32
  %105 = icmp ne i32 %104, 0
  %106 = select i1 %105, ptr @.str.205, ptr @.str.206
  call void (ptr, i32, ptr, ...) @col_append_fstr(ptr noundef %96, i32 noundef 25, ptr noundef @.str.204, ptr noundef %102, ptr noundef %106)
  %107 = load ptr, ptr %9, align 8
  %108 = load i32, ptr @hf_saddr, align 4
  %109 = load ptr, ptr %5, align 8
  %110 = load i32, ptr %11, align 4
  %111 = call ptr @proto_tree_add_item(ptr noundef %107, i32 noundef %108, ptr noundef %109, i32 noundef %110, i32 noundef 4, i32 noundef 0)
  %112 = load i32, ptr %11, align 4
  %113 = add i32 %112, 4
  store i32 %113, ptr %11, align 4
  br label %89, !llvm.loop !11

114:                                              ; preds = %89
  %115 = load i32, ptr %11, align 4
  call void @llvm.lifetime.end.p0(i64 1, ptr %12) #4
  call void @llvm.lifetime.end.p0(i64 4, ptr %11) #4
  call void @llvm.lifetime.end.p0(i64 2, ptr %10) #4
  call void @llvm.lifetime.end.p0(i64 8, ptr %9) #4
  ret i32 %115
}

; Function Attrs: null_pointer_is_valid sspstrong uwtable
define internal i32 @dissect_igmp_mquery(ptr noundef %0, ptr noundef %1, ptr noundef %2, ptr noundef %3) #0 {
  %5 = alloca i32, align 4
  %6 = alloca ptr, align 8
  %7 = alloca ptr, align 8
  %8 = alloca ptr, align 8
  %9 = alloca ptr, align 8
  store ptr %0, ptr %6, align 8
  store ptr %1, ptr %7, align 8
  store ptr %2, ptr %8, align 8
  store ptr %3, ptr %9, align 8
  %10 = load ptr, ptr %6, align 8
  %11 = call i32 @tvb_reported_length(ptr noundef %10)
  %12 = icmp uge i32 %11, 12
  br i1 %12, label %13, label %19

13:                                               ; preds = %4
  %14 = load ptr, ptr %6, align 8
  %15 = load ptr, ptr %7, align 8
  %16 = load ptr, ptr %8, align 8
  %17 = load ptr, ptr %9, align 8
  %18 = call i32 @dissect_igmp_v3_query(ptr noundef %14, ptr noundef %15, ptr noundef %16, ptr noundef %17)
  store i32 %18, ptr %5, align 4
  br label %35

19:                                               ; preds = %4
  %20 = load ptr, ptr %6, align 8
  %21 = call zeroext i8 @tvb_get_uint8(ptr noundef %20, i32 noundef 1)
  %22 = icmp ne i8 %21, 0
  br i1 %22, label %23, label %29

23:                                               ; preds = %19
  %24 = load ptr, ptr %6, align 8
  %25 = load ptr, ptr %7, align 8
  %26 = load ptr, ptr %8, align 8
  %27 = load ptr, ptr %9, align 8
  %28 = call i32 @dissect_igmp_v2(ptr noundef %24, ptr noundef %25, ptr noundef %26, ptr noundef %27)
  store i32 %28, ptr %5, align 4
  br label %35

29:                                               ; preds = %19
  %30 = load ptr, ptr %6, align 8
  %31 = load ptr, ptr %7, align 8
  %32 = load ptr, ptr %8, align 8
  %33 = load ptr, ptr %9, align 8
  %34 = call i32 @dissect_igmp_v1(ptr noundef %30, ptr noundef %31, ptr noundef %32, ptr noundef %33)
  store i32 %34, ptr %5, align 4
  br label %35

35:                                               ; preds = %29, %23, %13
  %36 = load i32, ptr %5, align 4
  ret i32 %36
}